target datalayout = "e-m:e-p270:32:32-p271:32:32-p272:64:64-i64:64-i128:128-f80:128-n8:16:32:64-S128"
target triple = "x86_64-pc-linux-gnu"

%struct.Scheduler = type { ptr, ptr, i32, ptr, i32, i32, %union.pthread_mutex_t, i32, i32, %union.pthread_mutex_t, %union.pthread_cond_t, ptr, i32, ptr, i32, ptr, i32, ptr, i32, ptr, i32, i32, i32, %union.pthread_mutex_t, i64 }
%union.pthread_cond_t = type { %struct.__pthread_cond_s }
%struct.__pthread_cond_s = type { %union.__atomic_wide_counter, %union.__atomic_wide_counter, [2 x i32], [2 x i32], i32, i32, [2 x i32] }
%union.__atomic_wide_counter = type { i64 }
%union.pthread_mutex_t = type { %struct.__pthread_mutex_s }
%struct.__pthread_mutex_s = type { i32, i32, i32, i32, i32, i16, i16, %struct.__pthread_internal_list }
%struct.__pthread_internal_list = type { ptr, ptr }
%struct.SchTask = type { ptr, %struct.SchedulerNode, ptr, ptr, i64, i32 }
%struct.SchedulerNode = type { i32, i32, i32 }
%struct.SchMux = type { ptr, ptr, i32, i32, ptr, %struct.SchTask, i32, ptr, i32, ptr }
%struct.SchMuxStream = type { %struct.SchedulerNode, %struct.SchedulerNode, ptr, i32, %struct.PreMuxQueue, i32, i64, i32 }
%struct.PreMuxQueue = type { ptr, i32, i64, i64 }

@.str = private unnamed_addr constant [30 x i8] c"Assertion %s failed at %s:%d\0A\00", align 1
@.str.1 = private unnamed_addr constant [22 x i8] c"mux_idx < sch->nb_mux\00", align 1
@.str.2 = private unnamed_addr constant [23 x i8] c"fftools/ffmpeg_sched.c\00", align 1
@.str.22 = private unnamed_addr constant [29 x i8] c"stream_idx < mux->nb_streams\00", align 1

; Function Attrs: nounwind uwtable
define void @sch_mux_receive_finish(ptr noundef %0, i32 noundef %1, i32 noundef %2) #0 {
  %4 = alloca ptr, align 8
  %5 = alloca i32, align 4
  %6 = alloca i32, align 4
  %7 = alloca ptr, align 8
  store ptr %0, ptr %4, align 8, !tbaa !10
  store i32 %1, ptr %5, align 4, !tbaa !12
  store i32 %2, ptr %6, align 4, !tbaa !12
  call void @llvm.lifetime.start.p0(i64 8, ptr %7) #9
  br label %8

8:                                                ; preds = %3
  %9 = load i32, ptr %5, align 4, !tbaa !12
  %10 = load ptr, ptr %4, align 8, !tbaa !10
  %11 = getelementptr inbounds nuw %struct.Scheduler, ptr %10, i32 0, i32 4
  %12 = load i32, ptr %11, align 8, !tbaa !39
  %13 = icmp ult i32 %9, %12
  br i1 %13, label %15, label %14

14:                                               ; preds = %8
  call void (ptr, i32, ptr, ...) @av_log(ptr noundef null, i32 noundef 0, ptr noundef @.str, ptr noundef @.str.1, ptr noundef @.str.2, i32 noundef 2090)
  call void @abort() #10
  unreachable

15:                                               ; preds = %8
  br label %16

16:                                               ; preds = %15
  br label %17

17:                                               ; preds = %16
  %18 = load ptr, ptr %4, align 8, !tbaa !10
  %19 = getelementptr inbounds nuw %struct.Scheduler, ptr %18, i32 0, i32 3
  %20 = load ptr, ptr %19, align 8, !tbaa !40
  %21 = load i32, ptr %5, align 4, !tbaa !12
  %22 = zext i32 %21 to i64
  %23 = getelementptr inbounds nuw %struct.SchMux, ptr %20, i64 %22
  store ptr %23, ptr %7, align 8, !tbaa !41
  br label %24

24:                                               ; preds = %17
  %25 = load i32, ptr %6, align 4, !tbaa !12
  %26 = load ptr, ptr %7, align 8, !tbaa !41
  %27 = getelementptr inbounds nuw %struct.SchMux, ptr %26, i32 0, i32 2
  %28 = load i32, ptr %27, align 8, !tbaa !42
  %29 = icmp ult i32 %25, %28
  br i1 %29, label %31, label %30

30:                                               ; preds = %24
  call void (ptr, i32, ptr, ...) @av_log(ptr noundef null, i32 noundef 0, ptr noundef @.str, ptr noundef @.str.22, ptr noundef @.str.2, i32 noundef 2093)
  call void @abort() #10
  unreachable

31:                                               ; preds = %24
  br label %32

32:                                               ; preds = %31
  br label %33

33:                                               ; preds = %32
  %34 = load ptr, ptr %7, align 8, !tbaa !41
  %35 = getelementptr inbounds nuw %struct.SchMux, ptr %34, i32 0, i32 7
  %36 = load ptr, ptr %35, align 8, !tbaa !229
  %37 = load i32, ptr %6, align 4, !tbaa !12
  call void @tq_receive_finish(ptr noundef %36, i32 noundef %37)
  %38 = load ptr, ptr %4, align 8, !tbaa !10
  %39 = getelementptr inbounds nuw %struct.Scheduler, ptr %38, i32 0, i32 23
  %40 = call i32 @pthread_mutex_lock(ptr noundef %39) #9
  %41 = load ptr, ptr %7, align 8, !tbaa !41
  %42 = getelementptr inbounds nuw %struct.SchMux, ptr %41, i32 0, i32 1
  %43 = load ptr, ptr %42, align 8, !tbaa !46
  %44 = load i32, ptr %6, align 4, !tbaa !12
  %45 = zext i32 %44 to i64
  %46 = getelementptr inbounds nuw %struct.SchMuxStream, ptr %43, i64 %45
  %47 = getelementptr inbounds nuw %struct.SchMuxStream, ptr %46, i32 0, i32 7
  store i32 1, ptr %47, align 8, !tbaa !194
  %48 = load ptr, ptr %4, align 8, !tbaa !10
  call void @schedule_update_locked(ptr noundef %48)
  %49 = load ptr, ptr %4, align 8, !tbaa !10
  %50 = getelementptr inbounds nuw %struct.Scheduler, ptr %49, i32 0, i32 23
  %51 = call i32 @pthread_mutex_unlock(ptr noundef %50) #9
  call void @llvm.lifetime.end.p0(i64 8, ptr %7) #9
  ret void
}