; Function Attrs: nounwind uwtable
define void @sch_mux_receive_finish(ptr noundef %0, i32 noundef %1, i32 noundef %2) local_unnamed_addr #0 {
  %4 = getelementptr inbounds nuw i8, ptr %0, i64 32
  %5 = load i32, ptr %4, align 8, !tbaa !20
  %6 = icmp ult i32 %1, %5
  br i1 %6, label %8, label %7

7:                                                ; preds = %3
  tail call void (ptr, i32, ptr, ...) @av_log(ptr noundef null, i32 noundef 0, ptr noundef nonnull @.str, ptr noundef nonnull @.str.1, ptr noundef nonnull @.str.2, i32 noundef 2090) #9
  tail call void @abort() #10
  unreachable

8:                                                ; preds = %3
  %9 = getelementptr inbounds nuw i8, ptr %0, i64 24
  %10 = load ptr, ptr %9, align 8, !tbaa !35
  %11 = zext i32 %1 to i64
  %12 = getelementptr inbounds nuw %struct.SchMux, ptr %10, i64 %11
  %13 = getelementptr inbounds nuw i8, ptr %12, i64 16
  %14 = load i32, ptr %13, align 8, !tbaa !36
  %15 = icmp ult i32 %2, %14
  br i1 %15, label %17, label %16

16:                                               ; preds = %8
  tail call void (ptr, i32, ptr, ...) @av_log(ptr noundef null, i32 noundef 0, ptr noundef nonnull @.str, ptr noundef nonnull @.str.22, ptr noundef nonnull @.str.2, i32 noundef 2093) #9
  tail call void @abort() #10
  unreachable

17:                                               ; preds = %8
  %18 = getelementptr inbounds nuw i8, ptr %12, i64 96
  %19 = load ptr, ptr %18, align 8, !tbaa !210
  tail call void @tq_receive_finish(ptr noundef %19, i32 noundef %2) #9
  %20 = getelementptr inbounds nuw i8, ptr %0, i64 264
  %21 = tail call i32 @pthread_mutex_lock(ptr noundef nonnull %20) #9
  %22 = getelementptr inbounds nuw i8, ptr %12, i64 8
  %23 = load ptr, ptr %22, align 8, !tbaa !41
  %24 = zext i32 %2 to i64
  %25 = getelementptr inbounds nuw %struct.SchMuxStream, ptr %23, i64 %24, i32 7
  store i32 1, ptr %25, align 8, !tbaa !172
  tail call fastcc void @schedule_update_locked(ptr noundef nonnull %0)
  %26 = tail call i32 @pthread_mutex_unlock(ptr noundef nonnull %20) #9
  ret void
}